target datalayout = "e-m:e-p270:32:32-p271:32:32-p272:64:64-i64:64-i128:128-f80:128-n8:16:32:64-S128"
target triple = "x86_64-pc-linux-gnu"

%class.bv_bound_chk_tactic = type <{ %class.tactic.base, [4 x i8], ptr, %class.params_ref, %struct.bv_bound_chk_stats, [4 x i8] }>
%class.tactic.base = type <{ %"class.user_propagator::core", i32 }>
%"class.user_propagator::core" = type { ptr }
%class.params_ref = type { ptr }
%struct.bv_bound_chk_stats = type { i32, i32, i32 }
%"class.bv_bound_chk_tactic::imp" = type { %struct.bv_bound_chk_rewriter }
%struct.bv_bound_chk_rewriter = type { %class.rewriter_tpl, %struct.bv_bound_chk_rewriter_cfg }
%class.rewriter_tpl = type { %class.rewriter_core, ptr, i32, %class.ptr_vector.1, %class.var_shifter, %class.inv_var_shifter, %class.obj_ref, %class.obj_ref.10, %class.obj_ref.10, %class.svector.11 }
%class.rewriter_core = type { ptr, ptr, i8, i8, %class.ptr_vector, ptr, %class.svector, %class.ref_vector, %class.ptr_vector, ptr, %class.ref_vector.3, %class.obj_hashtable, ptr, i32, %class.svector.8 }
%class.svector = type { %class.vector.0 }
%class.vector.0 = type { ptr }
%class.ref_vector = type { %class.ref_vector_core }
%class.ref_vector_core = type { %class.ref_manager_wrapper, %class.ptr_vector.1 }
%class.ref_manager_wrapper = type { ptr }
%class.ptr_vector = type { %class.vector }
%class.vector = type { ptr }
%class.ref_vector.3 = type { %class.ref_vector_core.4 }
%class.ref_vector_core.4 = type { %class.ref_manager_wrapper.5, %class.ptr_vector.6 }
%class.ref_manager_wrapper.5 = type { ptr }
%class.ptr_vector.6 = type { %class.vector.7 }
%class.vector.7 = type { ptr }
%class.obj_hashtable = type { %class.core_hashtable.base, [4 x i8] }
%class.core_hashtable.base = type <{ ptr, i32, i32, i32 }>
%class.svector.8 = type { %class.vector.9 }
%class.vector.9 = type { ptr }
%class.ptr_vector.1 = type { %class.vector.2 }
%class.vector.2 = type { ptr }
%class.var_shifter = type <{ %class.var_shifter_core, i32, i32, i32, [4 x i8] }>
%class.var_shifter_core = type { %class.rewriter_core }
%class.inv_var_shifter = type <{ %class.var_shifter_core, i32, [4 x i8] }>
%class.obj_ref = type { ptr, ptr }
%class.obj_ref.10 = type { ptr, ptr }
%class.svector.11 = type { %class.vector.12 }
%class.vector.12 = type { ptr }
%struct.bv_bound_chk_rewriter_cfg = type { ptr, i32, %class.bool_rewriter, i64, i64, ptr }
%class.bool_rewriter = type { ptr, i8, i8, i8, i8, i8, i8, i32, i8, i32, i32, i8, %class.ptr_vector.1, %class.ptr_vector.1, %class.svector.11, %class.svector.11 }

@_ZTV21bv_bound_chk_rewriter = linkonce_odr hidden unnamed_addr constant { [4 x ptr] } { [4 x ptr] [ptr null, ptr @_ZTI21bv_bound_chk_rewriter, ptr @_ZN21bv_bound_chk_rewriterD2Ev, ptr @_ZN21bv_bound_chk_rewriterD0Ev] }, comdat, align 8

; Function Attrs: inlinehint mustprogress nounwind uwtable
define linkonce_odr hidden void @_ZN21bv_bound_chk_rewriterD2Ev(ptr noundef nonnull align 8 dereferenceable(648) %0) unnamed_addr #5 comdat align 2 {
  %2 = alloca ptr, align 8
  store ptr %0, ptr %2, align 8, !tbaa !107
  %3 = load ptr, ptr %2, align 8
  store ptr getelementptr inbounds inrange(-16, 16) ({ [4 x ptr] }, ptr @_ZTV21bv_bound_chk_rewriter, i32 0, i32 0, i32 2), ptr %3, align 8, !tbaa !12
  %4 = getelementptr inbounds nuw %struct.bv_bound_chk_rewriter, ptr %3, i32 0, i32 1
  call void @_ZN25bv_bound_chk_rewriter_cfgD2Ev(ptr noundef nonnull align 8 dereferenceable(112) %4) #3
  call void @_ZN12rewriter_tplI25bv_bound_chk_rewriter_cfgED2Ev(ptr noundef nonnull align 8 dereferenceable(536) %3) #3
  ret void
}

; Function Attrs: inlinehint mustprogress nounwind uwtable
define linkonce_odr hidden void @_ZN25bv_bound_chk_rewriter_cfgD2Ev(ptr noundef nonnull align 8 dereferenceable(112) %0) unnamed_addr #5 comdat align 2 {
  %2 = alloca ptr, align 8
  store ptr %0, ptr %2, align 8, !tbaa !109
  %3 = load ptr, ptr %2, align 8
  %4 = getelementptr inbounds nuw %struct.bv_bound_chk_rewriter_cfg, ptr %3, i32 0, i32 2
  call void @_ZN13bool_rewriterD2Ev(ptr noundef nonnull align 8 dereferenceable(72) %4) #3
  ret void
}

; Function Attrs: mustprogress uwtable
define linkonce_odr hidden void @_ZN21bv_bound_chk_rewriter11updt_paramsERK10params_ref(ptr noundef nonnull align 8 dereferenceable(648) %0, ptr noundef nonnull align 8 dereferenceable(8) %1) #4 comdat align 2 {
  %3 = alloca ptr, align 8
  %4 = alloca ptr, align 8
  store ptr %0, ptr %3, align 8, !tbaa !107
  store ptr %1, ptr %4, align 8, !tbaa !10
  %5 = load ptr, ptr %3, align 8
  %6 = getelementptr inbounds nuw %struct.bv_bound_chk_rewriter, ptr %5, i32 0, i32 1
  %7 = load ptr, ptr %4, align 8, !tbaa !10
  call void @_ZN25bv_bound_chk_rewriter_cfg11updt_paramsERK10params_ref(ptr noundef nonnull align 8 dereferenceable(112) %6, ptr noundef nonnull align 8 dereferenceable(8) %7)
  ret void
}

; Function Attrs: inlinehint mustprogress nounwind uwtable
define linkonce_odr hidden void @_ZN19bv_bound_chk_tactic3impD2Ev(ptr noundef nonnull align 8 dereferenceable(648) %0) unnamed_addr #5 comdat align 2 {
  %2 = alloca ptr, align 8
  store ptr %0, ptr %2, align 8, !tbaa !31
  %3 = load ptr, ptr %2, align 8
  %4 = getelementptr inbounds nuw %"class.bv_bound_chk_tactic::imp", ptr %3, i32 0, i32 0
  call void @_ZN21bv_bound_chk_rewriterD2Ev(ptr noundef nonnull align 8 dereferenceable(648) %4) #3
  ret void
}

; Function Attrs: mustprogress uwtable
define linkonce_odr hidden void @_ZN21bv_bound_chk_rewriterC2ER11ast_managerRK10params_refR18bv_bound_chk_stats(ptr noundef nonnull align 8 dereferenceable(648) %0, ptr noundef nonnull align 8 dereferenceable(976) %1, ptr noundef nonnull align 8 dereferenceable(8) %2, ptr noundef nonnull align 4 dereferenceable(12) %3) unnamed_addr #4 comdat align 2 personality ptr @__gxx_personality_v0 {
  %5 = alloca ptr, align 8
  %6 = alloca ptr, align 8
  %7 = alloca ptr, align 8
  %8 = alloca ptr, align 8
  %9 = alloca ptr, align 8
  %10 = alloca i32, align 4
  store ptr %0, ptr %5, align 8, !tbaa !107
  store ptr %1, ptr %6, align 8, !tbaa !8
  store ptr %2, ptr %7, align 8, !tbaa !10
  store ptr %3, ptr %8, align 8, !tbaa !26
  %11 = load ptr, ptr %5, align 8
  store ptr getelementptr inbounds inrange(-16, 16) ({ [4 x ptr] }, ptr @_ZTV21bv_bound_chk_rewriter, i32 0, i32 0, i32 2), ptr %11, align 8, !tbaa !12
  %12 = load ptr, ptr %6, align 8, !tbaa !8
  %13 = getelementptr inbounds nuw %struct.bv_bound_chk_rewriter, ptr %11, i32 0, i32 1
  call void @_ZN12rewriter_tplI25bv_bound_chk_rewriter_cfgEC2ER11ast_managerbRS0_(ptr noundef nonnull align 8 dereferenceable(536) %11, ptr noundef nonnull align 8 dereferenceable(976) %12, i1 noundef zeroext false, ptr noundef nonnull align 8 dereferenceable(112) %13)
  store ptr getelementptr inbounds inrange(-16, 16) ({ [4 x ptr] }, ptr @_ZTV21bv_bound_chk_rewriter, i32 0, i32 0, i32 2), ptr %11, align 8, !tbaa !12
  %14 = getelementptr inbounds nuw %struct.bv_bound_chk_rewriter, ptr %11, i32 0, i32 1
  %15 = load ptr, ptr %6, align 8, !tbaa !8
  %16 = load ptr, ptr %8, align 8, !tbaa !26
  invoke void @_ZN25bv_bound_chk_rewriter_cfgC2ER11ast_managerR18bv_bound_chk_stats(ptr noundef nonnull align 8 dereferenceable(112) %14, ptr noundef nonnull align 8 dereferenceable(976) %15, ptr noundef nonnull align 4 dereferenceable(12) %16)
          to label %17 unwind label %20

17:                                               ; preds = %4
  %18 = load ptr, ptr %7, align 8, !tbaa !10
  invoke void @_ZN21bv_bound_chk_rewriter11updt_paramsERK10params_ref(ptr noundef nonnull align 8 dereferenceable(648) %11, ptr noundef nonnull align 8 dereferenceable(8) %18)
          to label %19 unwind label %24

19:                                               ; preds = %17
  ret void

20:                                               ; preds = %4
  %21 = landingpad { ptr, i32 }
          cleanup
  %22 = extractvalue { ptr, i32 } %21, 0
  store ptr %22, ptr %9, align 8
  %23 = extractvalue { ptr, i32 } %21, 1
  store i32 %23, ptr %10, align 4
  br label %28

24:                                               ; preds = %17
  %25 = landingpad { ptr, i32 }
          cleanup
  %26 = extractvalue { ptr, i32 } %25, 0
  store ptr %26, ptr %9, align 8
  %27 = extractvalue { ptr, i32 } %25, 1
  store i32 %27, ptr %10, align 4
  call void @_ZN25bv_bound_chk_rewriter_cfgD2Ev(ptr noundef nonnull align 8 dereferenceable(112) %14) #3
  br label %28

28:                                               ; preds = %24, %20
  call void @_ZN12rewriter_tplI25bv_bound_chk_rewriter_cfgED2Ev(ptr noundef nonnull align 8 dereferenceable(536) %11) #3
  br label %29

29:                                               ; preds = %28
  %30 = load ptr, ptr %9, align 8
  %31 = load i32, ptr %10, align 4
  %32 = insertvalue { ptr, i32 } poison, ptr %30, 0
  %33 = insertvalue { ptr, i32 } %32, i32 %31, 1
  resume { ptr, i32 } %33
}

; Function Attrs: mustprogress nounwind uwtable
define linkonce_odr hidden noundef nonnull align 8 dereferenceable(976) ptr @_ZNK12rewriter_tplI25bv_bound_chk_rewriter_cfgE1mEv(ptr noundef nonnull align 8 dereferenceable(536) %0) #6 comdat align 2 {
  %2 = alloca ptr, align 8
  store ptr %0, ptr %2, align 8, !tbaa !164
  %3 = load ptr, ptr %2, align 8
  %4 = getelementptr inbounds nuw %class.rewriter_core, ptr %3, i32 0, i32 1
  %5 = load ptr, ptr %4, align 8, !tbaa !340
  ret ptr %5
}

; Function Attrs: mustprogress uwtable
define linkonce_odr hidden void @_Z7deallocIN19bv_bound_chk_tactic3impEEvPT_(ptr noundef %0) #4 comdat {
  %2 = alloca ptr, align 8
  store ptr %0, ptr %2, align 8, !tbaa !31
  %3 = load ptr, ptr %2, align 8, !tbaa !31
  %4 = icmp eq ptr %3, null
  br i1 %4, label %5, label %6

5:                                                ; preds = %1
  br label %9

6:                                                ; preds = %1
  %7 = load ptr, ptr %2, align 8, !tbaa !31
  call void @_ZN19bv_bound_chk_tactic3impD2Ev(ptr noundef nonnull align 8 dereferenceable(648) %7) #3
  %8 = load ptr, ptr %2, align 8, !tbaa !31
  call void @_ZN6memory10deallocateEPv(ptr noundef %8)
  br label %9

9:                                                ; preds = %6, %5
  ret void
}

; Function Attrs: inlinehint mustprogress nounwind uwtable
define linkonce_odr hidden void @_ZSt4swapIPN19bv_bound_chk_tactic3impEENSt9enable_ifIXsr6__and_ISt6__not_ISt15__is_tuple_likeIT_EESt21is_move_constructibleIS6_ESt18is_move_assignableIS6_EEE5valueEvE4typeERS6_SF_(ptr noundef nonnull align 8 dereferenceable(8) %0, ptr noundef nonnull align 8 dereferenceable(8) %1) #5 comdat {
  %3 = alloca ptr, align 8
  %4 = alloca ptr, align 8
  %5 = alloca ptr, align 8
  store ptr %0, ptr %3, align 8, !tbaa !47
  store ptr %1, ptr %4, align 8, !tbaa !47
  call void @llvm.lifetime.start.p0(i64 8, ptr %5) #3
  %6 = load ptr, ptr %3, align 8, !tbaa !47
  %7 = load ptr, ptr %6, align 8, !tbaa !31
  store ptr %7, ptr %5, align 8, !tbaa !31
  %8 = load ptr, ptr %4, align 8, !tbaa !47
  %9 = load ptr, ptr %8, align 8, !tbaa !31
  %10 = load ptr, ptr %3, align 8, !tbaa !47
  store ptr %9, ptr %10, align 8, !tbaa !31
  %11 = load ptr, ptr %5, align 8, !tbaa !31
  %12 = load ptr, ptr %4, align 8, !tbaa !47
  store ptr %11, ptr %12, align 8, !tbaa !31
  call void @llvm.lifetime.end.p0(i64 8, ptr %5) #3
  ret void
}

; Function Attrs: mustprogress uwtable
define linkonce_odr hidden void @_ZN19bv_bound_chk_tactic3impC2ER11ast_managerRK10params_refR18bv_bound_chk_stats(ptr noundef nonnull align 8 dereferenceable(648) %0, ptr noundef nonnull align 8 dereferenceable(976) %1, ptr noundef nonnull align 8 dereferenceable(8) %2, ptr noundef nonnull align 4 dereferenceable(12) %3) unnamed_addr #4 comdat align 2 {
  %5 = alloca ptr, align 8
  %6 = alloca ptr, align 8
  %7 = alloca ptr, align 8
  %8 = alloca ptr, align 8
  store ptr %0, ptr %5, align 8, !tbaa !31
  store ptr %1, ptr %6, align 8, !tbaa !8
  store ptr %2, ptr %7, align 8, !tbaa !10
  store ptr %3, ptr %8, align 8, !tbaa !26
  %9 = load ptr, ptr %5, align 8
  %10 = getelementptr inbounds nuw %"class.bv_bound_chk_tactic::imp", ptr %9, i32 0, i32 0
  %11 = load ptr, ptr %6, align 8, !tbaa !8
  %12 = load ptr, ptr %7, align 8, !tbaa !10
  %13 = load ptr, ptr %8, align 8, !tbaa !26
  call void @_ZN21bv_bound_chk_rewriterC2ER11ast_managerRK10params_refR18bv_bound_chk_stats(ptr noundef nonnull align 8 dereferenceable(648) %10, ptr noundef nonnull align 8 dereferenceable(976) %11, ptr noundef nonnull align 8 dereferenceable(8) %12, ptr noundef nonnull align 4 dereferenceable(12) %13)
  ret void
}

; Function Attrs: mustprogress nounwind uwtable
define linkonce_odr hidden noundef nonnull align 8 dereferenceable(976) ptr @_ZN19bv_bound_chk_tactic3imp1mEv(ptr noundef nonnull align 8 dereferenceable(648) %0) #6 comdat align 2 {
  %2 = alloca ptr, align 8
  store ptr %0, ptr %2, align 8, !tbaa !31
  %3 = load ptr, ptr %2, align 8
  %4 = getelementptr inbounds nuw %"class.bv_bound_chk_tactic::imp", ptr %3, i32 0, i32 0
  %5 = call noundef nonnull align 8 dereferenceable(976) ptr @_ZNK12rewriter_tplI25bv_bound_chk_rewriter_cfgE1mEv(ptr noundef nonnull align 8 dereferenceable(536) %4)
  ret ptr %5
}

; Function Attrs: mustprogress uwtable
define hidden void @_ZN19bv_bound_chk_tactic7cleanupEv(ptr noundef nonnull align 8 dereferenceable(44) %0) unnamed_addr #4 align 2 {
  %2 = alloca ptr, align 8
  %3 = alloca ptr, align 8
  store ptr %0, ptr %2, align 8, !tbaa !3
  %4 = load ptr, ptr %2, align 8
  call void @llvm.lifetime.start.p0(i64 8, ptr %3) #3
  %5 = call noalias noundef ptr @_ZN6memory8allocateEm(i64 noundef 648)
  %6 = getelementptr inbounds nuw %class.bv_bound_chk_tactic, ptr %4, i32 0, i32 2
  %7 = load ptr, ptr %6, align 8, !tbaa !14
  %8 = call noundef nonnull align 8 dereferenceable(976) ptr @_ZN19bv_bound_chk_tactic3imp1mEv(ptr noundef nonnull align 8 dereferenceable(648) %7)
  %9 = getelementptr inbounds nuw %class.bv_bound_chk_tactic, ptr %4, i32 0, i32 3
  %10 = getelementptr inbounds nuw %class.bv_bound_chk_tactic, ptr %4, i32 0, i32 4
  call void @_ZN19bv_bound_chk_tactic3impC2ER11ast_managerRK10params_refR18bv_bound_chk_stats(ptr noundef nonnull align 8 dereferenceable(648) %5, ptr noundef nonnull align 8 dereferenceable(976) %8, ptr noundef nonnull align 8 dereferenceable(8) %9, ptr noundef nonnull align 4 dereferenceable(12) %10)
  store ptr %5, ptr %3, align 8, !tbaa !31
  %11 = getelementptr inbounds nuw %class.bv_bound_chk_tactic, ptr %4, i32 0, i32 2
  call void @_ZSt4swapIPN19bv_bound_chk_tactic3impEENSt9enable_ifIXsr6__and_ISt6__not_ISt15__is_tuple_likeIT_EESt21is_move_constructibleIS6_ESt18is_move_assignableIS6_EEE5valueEvE4typeERS6_SF_(ptr noundef nonnull align 8 dereferenceable(8) %3, ptr noundef nonnull align 8 dereferenceable(8) %11) #3
  %12 = load ptr, ptr %3, align 8, !tbaa !31
  call void @_Z7deallocIN19bv_bound_chk_tactic3impEEvPT_(ptr noundef %12)
  call void @llvm.lifetime.end.p0(i64 8, ptr %3) #3
  ret void
}