; Function Attrs: mustprogress uwtable
define hidden void @_ZN19bv_bound_chk_tactic7cleanupEv(ptr noundef nonnull align 8 dereferenceable(44) %0) unnamed_addr #3 align 2 personality ptr @__gxx_personality_v0 {
  %2 = tail call noalias noundef ptr @_ZN6memory8allocateEm(i64 noundef 648)
  %3 = getelementptr inbounds nuw i8, ptr %0, i64 16
  %4 = load ptr, ptr %3, align 8, !tbaa !15
  %5 = getelementptr inbounds nuw i8, ptr %4, i64 8
  %6 = load ptr, ptr %5, align 8, !tbaa !65
  %7 = getelementptr inbounds nuw i8, ptr %0, i64 32
  store ptr getelementptr inbounds nuw inrange(-16, 16) (i8, ptr @_ZTV21bv_bound_chk_rewriter, i64 16), ptr %2, align 8, !tbaa !9
  %8 = getelementptr inbounds nuw i8, ptr %2, i64 536
  tail call void @_ZN12rewriter_tplI25bv_bound_chk_rewriter_cfgEC2ER11ast_managerbRS0_(ptr noundef nonnull align 8 dereferenceable(648) %2, ptr noundef nonnull align 8 dereferenceable(976) %6, i1 noundef zeroext false, ptr noundef nonnull align 8 dereferenceable(112) %8)
  store ptr getelementptr inbounds nuw inrange(-16, 16) (i8, ptr @_ZTV21bv_bound_chk_rewriter, i64 16), ptr %2, align 8, !tbaa !9
  invoke void @_ZN25bv_bound_chk_rewriter_cfgC2ER11ast_managerR18bv_bound_chk_stats(ptr noundef nonnull align 8 dereferenceable(112) %8, ptr noundef nonnull align 8 dereferenceable(976) %6, ptr noundef nonnull align 4 dereferenceable(12) %7)
          to label %9 unwind label %11

9:                                                ; preds = %1
  %10 = getelementptr inbounds nuw i8, ptr %0, i64 24
  invoke void @_ZN25bv_bound_chk_rewriter_cfg11updt_paramsERK10params_ref(ptr noundef nonnull align 8 dereferenceable(112) %8, ptr noundef nonnull align 8 dereferenceable(8) %10)
          to label %_ZN19bv_bound_chk_tactic3impC2ER11ast_managerRK10params_refR18bv_bound_chk_stats.exit unwind label %13

11:                                               ; preds = %1
  %12 = landingpad { ptr, i32 }
          cleanup
  br label %16

13:                                               ; preds = %9
  %14 = landingpad { ptr, i32 }
          cleanup
  %15 = getelementptr inbounds nuw i8, ptr %2, i64 552
  tail call void @_ZN13bool_rewriterD2Ev(ptr noundef nonnull align 8 dereferenceable(72) %15) #19
  br label %16

16:                                               ; preds = %13, %11
  %.pn.i.i = phi { ptr, i32 } [ %14, %13 ], [ %12, %11 ]
  tail call void @_ZN12rewriter_tplI25bv_bound_chk_rewriter_cfgED2Ev(ptr noundef nonnull align 8 dereferenceable(648) %2) #19
  resume { ptr, i32 } %.pn.i.i

_ZN19bv_bound_chk_tactic3impC2ER11ast_managerRK10params_refR18bv_bound_chk_stats.exit: ; preds = %9
  %17 = load ptr, ptr %3, align 8, !tbaa !93
  store ptr %2, ptr %3, align 8, !tbaa !93
  %18 = icmp eq ptr %17, null
  br i1 %18, label %_Z7deallocIN19bv_bound_chk_tactic3impEEvPT_.exit, label %19

19:                                               ; preds = %_ZN19bv_bound_chk_tactic3impC2ER11ast_managerRK10params_refR18bv_bound_chk_stats.exit
  store ptr getelementptr inbounds nuw inrange(-16, 16) (i8, ptr @_ZTV21bv_bound_chk_rewriter, i64 16), ptr %17, align 8, !tbaa !9
  %20 = getelementptr inbounds nuw i8, ptr %17, i64 552
  tail call void @_ZN13bool_rewriterD2Ev(ptr noundef nonnull align 8 dereferenceable(72) %20) #19
  tail call void @_ZN12rewriter_tplI25bv_bound_chk_rewriter_cfgED2Ev(ptr noundef nonnull align 8 dereferenceable(648) %17) #19
  tail call void @_ZN6memory10deallocateEPv(ptr noundef nonnull %17)
  br label %_Z7deallocIN19bv_bound_chk_tactic3impEEvPT_.exit

_Z7deallocIN19bv_bound_chk_tactic3impEEvPT_.exit: ; preds = %_ZN19bv_bound_chk_tactic3impC2ER11ast_managerRK10params_refR18bv_bound_chk_stats.exit, %19
  ret void
}